; ModuleID = '35/2385.c'
source_filename = "35/2385.c"
target datalayout = "e-m:e-p270:32:32-p271:32:32-p272:64:64-i64:64-f80:128-n8:16:32:64-S128"
target triple = "x86_64-pc-linux-gnu"

@.str = private unnamed_addr constant [6 x i8] c"%d,%d\00", align 1
@.str.1 = private unnamed_addr constant [3 x i8] c"%d\00", align 1
@.str.2 = private unnamed_addr constant [6 x i8] c"%d+%d\00", align 1
@.str.3 = private unnamed_addr constant [3 x i8] c"No\00", align 1

; Function Attrs: noinline nounwind uwtable
define dso_local i32 @main() #0 {
  %1 = alloca i32, align 4
  %2 = alloca i32, align 4
  %3 = alloca i32, align 4
  %4 = alloca i32, align 4
  %5 = alloca i32, align 4
  %6 = alloca i32, align 4
  %7 = alloca i32, align 4
  %8 = alloca i32, align 4
  %9 = alloca i32, align 4
  %10 = alloca [8 x [8 x i32]], align 16
  %11 = alloca i32, align 4
  %12 = alloca i32, align 4
  store i32 0, i32* %1, align 4
  store i32 0, i32* %9, align 4
  %13 = call i32 (i8*, ...) @__isoc99_scanf(i8* getelementptr inbounds ([6 x i8], [6 x i8]* @.str, i64 0, i64 0), i32* %2, i32* %3)
  store i32 0, i32* %4, align 4
  br label %14

14:                                               ; preds = %35, %0
  %15 = load i32, i32* %4, align 4
  %16 = load i32, i32* %2, align 4
  %17 = icmp slt i32 %15, %16
  br i1 %17, label %18, label %38

18:                                               ; preds = %14
  store i32 0, i32* %5, align 4
  br label %19

19:                                               ; preds = %31, %18
  %20 = load i32, i32* %5, align 4
  %21 = load i32, i32* %3, align 4
  %22 = icmp slt i32 %20, %21
  br i1 %22, label %23, label %34

23:                                               ; preds = %19
  %24 = load i32, i32* %4, align 4
  %25 = sext i32 %24 to i64
  %26 = getelementptr inbounds [8 x [8 x i32]], [8 x [8 x i32]]* %10, i64 0, i64 %25
  %27 = load i32, i32* %5, align 4
  %28 = sext i32 %27 to i64
  %29 = getelementptr inbounds [8 x i32], [8 x i32]* %26, i64 0, i64 %28
  %30 = call i32 (i8*, ...) @__isoc99_scanf(i8* getelementptr inbounds ([3 x i8], [3 x i8]* @.str.1, i64 0, i64 0), i32* %29)
  br label %31

31:                                               ; preds = %23
  %32 = load i32, i32* %5, align 4
  %33 = add nsw i32 %32, 1
  store i32 %33, i32* %5, align 4
  br label %19

34:                                               ; preds = %19
  br label %35

35:                                               ; preds = %34
  %36 = load i32, i32* %4, align 4
  %37 = add nsw i32 %36, 1
  store i32 %37, i32* %4, align 4
  br label %14

38:                                               ; preds = %14
  store i32 0, i32* %11, align 4
  store i32 1000, i32* %12, align 4
  store i32 0, i32* %4, align 4
  br label %39

39:                                               ; preds = %110, %38
  %40 = load i32, i32* %4, align 4
  %41 = load i32, i32* %2, align 4
  %42 = icmp slt i32 %40, %41
  br i1 %42, label %43, label %113

43:                                               ; preds = %39
  store i32 0, i32* %5, align 4
  br label %44

44:                                               ; preds = %68, %43
  %45 = load i32, i32* %5, align 4
  %46 = load i32, i32* %3, align 4
  %47 = icmp slt i32 %45, %46
  br i1 %47, label %48, label %71

48:                                               ; preds = %44
  %49 = load i32, i32* %4, align 4
  %50 = sext i32 %49 to i64
  %51 = getelementptr inbounds [8 x [8 x i32]], [8 x [8 x i32]]* %10, i64 0, i64 %50
  %52 = load i32, i32* %5, align 4
  %53 = sext i32 %52 to i64
  %54 = getelementptr inbounds [8 x i32], [8 x i32]* %51, i64 0, i64 %53
  %55 = load i32, i32* %54, align 4
  %56 = load i32, i32* %11, align 4
  %57 = icmp sgt i32 %55, %56
  br i1 %57, label %58, label %67

58:                                               ; preds = %48
  %59 = load i32, i32* %4, align 4
  %60 = sext i32 %59 to i64
  %61 = getelementptr inbounds [8 x [8 x i32]], [8 x [8 x i32]]* %10, i64 0, i64 %60
  %62 = load i32, i32* %5, align 4
  %63 = sext i32 %62 to i64
  %64 = getelementptr inbounds [8 x i32], [8 x i32]* %61, i64 0, i64 %63
  %65 = load i32, i32* %64, align 4
  store i32 %65, i32* %11, align 4
  %66 = load i32, i32* %5, align 4
  store i32 %66, i32* %6, align 4
  br label %67

67:                                               ; preds = %58, %48
  br label %68

68:                                               ; preds = %67
  %69 = load i32, i32* %5, align 4
  %70 = add nsw i32 %69, 1
  store i32 %70, i32* %5, align 4
  br label %44

71:                                               ; preds = %44
  store i32 0, i32* %8, align 4
  br label %72

72:                                               ; preds = %96, %71
  %73 = load i32, i32* %8, align 4
  %74 = load i32, i32* %2, align 4
  %75 = icmp slt i32 %73, %74
  br i1 %75, label %76, label %99

76:                                               ; preds = %72
  %77 = load i32, i32* %8, align 4
  %78 = sext i32 %77 to i64
  %79 = getelementptr inbounds [8 x [8 x i32]], [8 x [8 x i32]]* %10, i64 0, i64 %78
  %80 = load i32, i32* %6, align 4
  %81 = sext i32 %80 to i64
  %82 = getelementptr inbounds [8 x i32], [8 x i32]* %79, i64 0, i64 %81
  %83 = load i32, i32* %82, align 4
  %84 = load i32, i32* %12, align 4
  %85 = icmp slt i32 %83, %84
  br i1 %85, label %86, label %95

86:                                               ; preds = %76
  %87 = load i32, i32* %8, align 4
  %88 = sext i32 %87 to i64
  %89 = getelementptr inbounds [8 x [8 x i32]], [8 x [8 x i32]]* %10, i64 0, i64 %88
  %90 = load i32, i32* %6, align 4
  %91 = sext i32 %90 to i64
  %92 = getelementptr inbounds [8 x i32], [8 x i32]* %89, i64 0, i64 %91
  %93 = load i32, i32* %92, align 4
  store i32 %93, i32* %12, align 4
  %94 = load i32, i32* %8, align 4
  store i32 %94, i32* %7, align 4
  br label %95

95:                                               ; preds = %86, %76
  br label %96

96:                                               ; preds = %95
  %97 = load i32, i32* %8, align 4
  %98 = add nsw i32 %97, 1
  store i32 %98, i32* %8, align 4
  br label %72

99:                                               ; preds = %72
  %100 = load i32, i32* %11, align 4
  %101 = load i32, i32* %12, align 4
  %102 = icmp eq i32 %100, %101
  br i1 %102, label %103, label %109

103:                                              ; preds = %99
  %104 = load i32, i32* %7, align 4
  %105 = load i32, i32* %6, align 4
  %106 = call i32 (i8*, ...) @printf(i8* getelementptr inbounds ([6 x i8], [6 x i8]* @.str.2, i64 0, i64 0), i32 %104, i32 %105)
  %107 = load i32, i32* %9, align 4
  %108 = add nsw i32 %107, 1
  store i32 %108, i32* %9, align 4
  br label %109

109:                                              ; preds = %103, %99
  br label %110

110:                                              ; preds = %109
  %111 = load i32, i32* %4, align 4
  %112 = add nsw i32 %111, 1
  store i32 %112, i32* %4, align 4
  br label %39

113:                                              ; preds = %39
  %114 = load i32, i32* %9, align 4
  %115 = icmp eq i32 %114, 0
  br i1 %115, label %116, label %118

116:                                              ; preds = %113
  %117 = call i32 (i8*, ...) @printf(i8* getelementptr inbounds ([3 x i8], [3 x i8]* @.str.3, i64 0, i64 0))
  br label %118

118:                                              ; preds = %116, %113
  ret i32 0
}

declare dso_local i32 @__isoc99_scanf(i8*, ...) #1

declare dso_local i32 @printf(i8*, ...) #1


!llvm.module.flags = !{!0}
!llvm.ident = !{!1}

!0 = !{i32 1, !"wchar_size", i32 4}
!1 = !{!"clang version 10.0.0-4ubuntu1 "}
